target datalayout = "e-m:e-p270:32:32-p271:32:32-p272:64:64-i64:64-i128:128-f80:128-n8:16:32:64-S128"
target triple = "x86_64-pc-linux-gnu"

%struct.pointf_s = type { double, double }
%struct.state_t = type { ptr, ptr, %struct.pointf_s, %struct.pointf_s, %struct.pointf_s, %struct.pointf_s, ptr }
%struct.Info_t = type { ptr, %struct.Site, i8, %struct.Poly, ptr, i64 }
%struct.Site = type { %struct.pointf_s, i64, i32 }
%struct.Poly = type { %struct.pointf_s, %struct.pointf_s, i32, ptr, i32 }

@stderr = external global ptr, align 8
@.str.11 = private unnamed_addr constant [58 x i8] c"integer overflow when trying to allocate %zu * %zu bytes\0A\00", align 1
@.str.12 = private unnamed_addr constant [49 x i8] c"out of memory when trying to allocate %zu bytes\0A\00", align 1
@nsites = external global i64, align 8
@nodeInfo = external global ptr, align 8

; Function Attrs: inlinehint nounwind uwtable
define internal ptr @gv_calloc(i64 noundef %0, i64 noundef %1) #2 {
  %3 = alloca i64, align 8
  %4 = alloca i64, align 8
  %5 = alloca ptr, align 8
  store i64 %0, ptr %3, align 8, !tbaa !46
  store i64 %1, ptr %4, align 8, !tbaa !46
  %6 = load i64, ptr %3, align 8, !tbaa !46
  %7 = icmp ugt i64 %6, 0
  br i1 %7, label %8, label %18

8:                                                ; preds = %2
  %9 = load i64, ptr %3, align 8, !tbaa !46
  %10 = udiv i64 -1, %9
  %11 = load i64, ptr %4, align 8, !tbaa !46
  %12 = icmp ult i64 %10, %11
  br i1 %12, label %13, label %18

13:                                               ; preds = %8
  %14 = load ptr, ptr @stderr, align 8, !tbaa !47
  %15 = load i64, ptr %3, align 8, !tbaa !46
  %16 = load i64, ptr %4, align 8, !tbaa !46
  %17 = call i32 (ptr, ptr, ...) @fprintf(ptr noundef %14, ptr noundef @.str.11, i64 noundef %15, i64 noundef %16) #13
  call void @graphviz_exit(i32 noundef 1) #14
  unreachable

18:                                               ; preds = %8, %2
  call void @llvm.lifetime.start.p0(i64 8, ptr %5) #13
  %19 = load i64, ptr %3, align 8, !tbaa !46
  %20 = load i64, ptr %4, align 8, !tbaa !46
  %21 = call noalias ptr @calloc(i64 noundef %19, i64 noundef %20) #15
  store ptr %21, ptr %5, align 8, !tbaa !49
  %22 = load i64, ptr %3, align 8, !tbaa !46
  %23 = icmp ugt i64 %22, 0
  br i1 %23, label %24, label %36

24:                                               ; preds = %18
  %25 = load i64, ptr %4, align 8, !tbaa !46
  %26 = icmp ugt i64 %25, 0
  br i1 %26, label %27, label %36

27:                                               ; preds = %24
  %28 = load ptr, ptr %5, align 8, !tbaa !49
  %29 = icmp eq ptr %28, null
  br i1 %29, label %30, label %36

30:                                               ; preds = %27
  %31 = load ptr, ptr @stderr, align 8, !tbaa !47
  %32 = load i64, ptr %3, align 8, !tbaa !46
  %33 = load i64, ptr %4, align 8, !tbaa !46
  %34 = mul i64 %32, %33
  %35 = call i32 (ptr, ptr, ...) @fprintf(ptr noundef %31, ptr noundef @.str.12, i64 noundef %34) #13
  call void @graphviz_exit(i32 noundef 1) #14
  unreachable

36:                                               ; preds = %27, %24, %18
  %37 = load ptr, ptr %5, align 8, !tbaa !49
  call void @llvm.lifetime.end.p0(i64 8, ptr %5) #13
  ret ptr %37
}

; Function Attrs: nounwind uwtable
define internal void @sortSites(ptr noundef %0) #0 {
  %2 = alloca ptr, align 8
  %3 = alloca i64, align 8
  %4 = alloca ptr, align 8
  store ptr %0, ptr %2, align 8, !tbaa !49
  %5 = load ptr, ptr %2, align 8, !tbaa !49
  %6 = getelementptr inbounds nuw %struct.state_t, ptr %5, i32 0, i32 0
  %7 = load ptr, ptr %6, align 8, !tbaa !83
  %8 = icmp eq ptr %7, null
  br i1 %8, label %9, label %21

9:                                                ; preds = %1
  %10 = load i64, ptr @nsites, align 8, !tbaa !46
  %11 = call ptr @gv_calloc(i64 noundef %10, i64 noundef 8)
  %12 = load ptr, ptr %2, align 8, !tbaa !49
  %13 = getelementptr inbounds nuw %struct.state_t, ptr %12, i32 0, i32 0
  store ptr %11, ptr %13, align 8, !tbaa !83
  %14 = load ptr, ptr %2, align 8, !tbaa !49
  %15 = getelementptr inbounds nuw %struct.state_t, ptr %14, i32 0, i32 0
  %16 = load ptr, ptr %15, align 8, !tbaa !83
  %17 = load i64, ptr @nsites, align 8, !tbaa !46
  %18 = getelementptr inbounds nuw ptr, ptr %16, i64 %17
  %19 = load ptr, ptr %2, align 8, !tbaa !49
  %20 = getelementptr inbounds nuw %struct.state_t, ptr %19, i32 0, i32 1
  store ptr %18, ptr %20, align 8, !tbaa !157
  br label %21

21:                                               ; preds = %9, %1
  call void @llvm.lifetime.start.p0(i64 8, ptr %3) #13
  store i64 0, ptr %3, align 8, !tbaa !46
  br label %22

22:                                               ; preds = %45, %21
  %23 = load i64, ptr %3, align 8, !tbaa !46
  %24 = load i64, ptr @nsites, align 8, !tbaa !46
  %25 = icmp ult i64 %23, %24
  br i1 %25, label %27, label %26

26:                                               ; preds = %22
  call void @llvm.lifetime.end.p0(i64 8, ptr %3) #13
  br label %48

27:                                               ; preds = %22
  call void @llvm.lifetime.start.p0(i64 8, ptr %4) #13
  %28 = load ptr, ptr @nodeInfo, align 8, !tbaa !49
  %29 = load i64, ptr %3, align 8, !tbaa !46
  %30 = getelementptr inbounds nuw %struct.Info_t, ptr %28, i64 %29
  store ptr %30, ptr %4, align 8, !tbaa !49
  %31 = load ptr, ptr %4, align 8, !tbaa !49
  %32 = getelementptr inbounds nuw %struct.Info_t, ptr %31, i32 0, i32 1
  %33 = load ptr, ptr %2, align 8, !tbaa !49
  %34 = getelementptr inbounds nuw %struct.state_t, ptr %33, i32 0, i32 0
  %35 = load ptr, ptr %34, align 8, !tbaa !83
  %36 = load i64, ptr %3, align 8, !tbaa !46
  %37 = getelementptr inbounds nuw ptr, ptr %35, i64 %36
  store ptr %32, ptr %37, align 8, !tbaa !158
  %38 = load ptr, ptr %4, align 8, !tbaa !49
  %39 = getelementptr inbounds nuw %struct.Info_t, ptr %38, i32 0, i32 4
  store ptr null, ptr %39, align 8, !tbaa !125
  %40 = load ptr, ptr %4, align 8, !tbaa !49
  %41 = getelementptr inbounds nuw %struct.Info_t, ptr %40, i32 0, i32 5
  store i64 0, ptr %41, align 8, !tbaa !126
  %42 = load ptr, ptr %4, align 8, !tbaa !49
  %43 = getelementptr inbounds nuw %struct.Info_t, ptr %42, i32 0, i32 1
  %44 = getelementptr inbounds nuw %struct.Site, ptr %43, i32 0, i32 2
  store i32 1, ptr %44, align 8, !tbaa !123
  call void @llvm.lifetime.end.p0(i64 8, ptr %4) #13
  br label %45

45:                                               ; preds = %27
  %46 = load i64, ptr %3, align 8, !tbaa !46
  %47 = add i64 %46, 1
  store i64 %47, ptr %3, align 8, !tbaa !46
  br label %22, !llvm.loop !170

48:                                               ; preds = %26
  %49 = load ptr, ptr %2, align 8, !tbaa !49
  %50 = getelementptr inbounds nuw %struct.state_t, ptr %49, i32 0, i32 0
  %51 = load ptr, ptr %50, align 8, !tbaa !83
  %52 = load i64, ptr @nsites, align 8, !tbaa !46
  call void @qsort(ptr noundef %51, i64 noundef %52, i64 noundef 8, ptr noundef @scomp)
  %53 = load ptr, ptr %2, align 8, !tbaa !49
  %54 = getelementptr inbounds nuw %struct.state_t, ptr %53, i32 0, i32 0
  %55 = load ptr, ptr %54, align 8, !tbaa !83
  %56 = load ptr, ptr %2, align 8, !tbaa !49
  %57 = getelementptr inbounds nuw %struct.state_t, ptr %56, i32 0, i32 6
  store ptr %55, ptr %57, align 8, !tbaa !171
  ret void
}