; Function Attrs: nofree nounwind uwtable
define internal fastcc void @sortSites(ptr noundef nonnull captures(none) %0) unnamed_addr #14 {
  %2 = load ptr, ptr %0, align 8, !tbaa !105
  %3 = icmp eq ptr %2, null
  %.pre = load i64, ptr @nsites, align 8, !tbaa !68
  br i1 %3, label %4, label %20

4:                                                ; preds = %1
  %.not.i = icmp eq i64 %.pre, 0
  br i1 %.not.i, label %.thread.i, label %6

.thread.i:                                        ; preds = %4
  %5 = tail call noalias ptr @calloc(i64 noundef 0, i64 noundef 8) #21
  br label %gv_calloc.exit

6:                                                ; preds = %4
  %mul.ov.i = icmp ugt i64 %.pre, 2305843009213693951
  br i1 %mul.ov.i, label %7, label %10

7:                                                ; preds = %6
  %8 = load ptr, ptr @stderr, align 8, !tbaa !7
  %9 = tail call i32 (ptr, ptr, ...) @fprintf(ptr noundef %8, ptr noundef nonnull @.str.11, i64 noundef %.pre, i64 noundef 8) #22
  tail call fastcc void @graphviz_exit() #23
  unreachable

10:                                               ; preds = %6
  %11 = tail call noalias ptr @calloc(i64 noundef %.pre, i64 noundef 8) #21
  %12 = icmp eq ptr %11, null
  br i1 %12, label %13, label %gv_calloc.exit

13:                                               ; preds = %10
  %14 = load ptr, ptr @stderr, align 8, !tbaa !7
  %15 = shl nuw i64 %.pre, 3
  %16 = tail call i32 (ptr, ptr, ...) @fprintf(ptr noundef %14, ptr noundef nonnull @.str.12, i64 noundef %15) #22
  tail call fastcc void @graphviz_exit() #23
  unreachable

gv_calloc.exit:                                   ; preds = %.thread.i, %10
  %17 = phi ptr [ %5, %.thread.i ], [ %11, %10 ]
  store ptr %17, ptr %0, align 8, !tbaa !105
  %18 = getelementptr inbounds nuw ptr, ptr %17, i64 %.pre
  %19 = getelementptr inbounds nuw i8, ptr %0, i64 8
  store ptr %18, ptr %19, align 8, !tbaa !148
  br label %20

20:                                               ; preds = %gv_calloc.exit, %1
  %21 = phi ptr [ %17, %gv_calloc.exit ], [ %2, %1 ]
  %.not = icmp eq i64 %.pre, 0
  br i1 %.not, label %._crit_edge, label %.lr.ph

._crit_edge:                                      ; preds = %.lr.ph, %20
  %.lcssa = phi i64 [ 0, %20 ], [ %31, %.lr.ph ]
  tail call void @qsort(ptr noundef %21, i64 noundef %.lcssa, i64 noundef 8, ptr noundef nonnull @scomp) #20
  %22 = load ptr, ptr %0, align 8, !tbaa !105
  %23 = getelementptr inbounds nuw i8, ptr %0, i64 80
  store ptr %22, ptr %23, align 8, !tbaa !156
  ret void

.lr.ph:                                           ; preds = %20, %.lr.ph
  %.016 = phi i64 [ %30, %.lr.ph ], [ 0, %20 ]
  %24 = load ptr, ptr @nodeInfo, align 8, !tbaa !69
  %25 = getelementptr inbounds nuw %struct.Info_t, ptr %24, i64 %.016
  %26 = getelementptr inbounds nuw i8, ptr %25, i64 8
  %27 = getelementptr inbounds nuw ptr, ptr %21, i64 %.016
  store ptr %26, ptr %27, align 8, !tbaa !106
  %28 = getelementptr inbounds nuw i8, ptr %25, i64 104
  %29 = getelementptr inbounds nuw i8, ptr %25, i64 32
  tail call void @llvm.memset.p0.i64(ptr noundef nonnull align 8 dereferenceable(16) %28, i8 0, i64 16, i1 false)
  store i32 1, ptr %29, align 8, !tbaa !84
  %30 = add nuw i64 %.016, 1
  %31 = load i64, ptr @nsites, align 8, !tbaa !68
  %32 = icmp ult i64 %30, %31
  br i1 %32, label %.lr.ph, label %._crit_edge, !llvm.loop !157
}